ARM GAS  /tmp/cctIMkXn.s 			page 1


   1              		.cpu cortex-m4
   2              		.eabi_attribute 27, 1
   3              		.eabi_attribute 28, 1
   4              		.eabi_attribute 20, 1
   5              		.eabi_attribute 21, 1
   6              		.eabi_attribute 23, 3
   7              		.eabi_attribute 24, 1
   8              		.eabi_attribute 25, 1
   9              		.eabi_attribute 26, 1
  10              		.eabi_attribute 30, 2
  11              		.eabi_attribute 34, 1
  12              		.eabi_attribute 18, 4
  13              		.file	"bsp_misc.c"
  14              		.text
  15              		.section	.text.BSP_LED_Init,"ax",%progbits
  16              		.align	1
  17              		.p2align 2,,3
  18              		.global	BSP_LED_Init
  19              		.arch armv7e-m
  20              		.syntax unified
  21              		.thumb
  22              		.thumb_func
  23              		.fpu fpv4-sp-d16
  25              	BSP_LED_Init:
  26              		@ args = 0, pretend = 0, frame = 32
  27              		@ frame_needed = 0, uses_anonymous_args = 0
  28 0000 F0B5     		push	{r4, r5, r6, r7, lr}
  29 0002 4FF41273 		mov	r3, #584
  30 0006 89B0     		sub	sp, sp, #36
  31 0008 0125     		movs	r5, #1
  32 000a 0026     		movs	r6, #0
  33 000c CDE90566 		strd	r6, r6, [sp, #20]
  34 0010 CDE90335 		strd	r3, r5, [sp, #12]
  35 0014 1B4C     		ldr	r4, .L4
  36 0016 0196     		str	r6, [sp, #4]
  37 0018 0796     		str	r6, [sp, #28]
  38 001a 236B     		ldr	r3, [r4, #48]
  39 001c 1A48     		ldr	r0, .L4+4
  40 001e 43F00203 		orr	r3, r3, #2
  41 0022 2363     		str	r3, [r4, #48]
  42 0024 236B     		ldr	r3, [r4, #48]
  43 0026 03F00203 		and	r3, r3, #2
  44 002a 0193     		str	r3, [sp, #4]
  45 002c 03A9     		add	r1, sp, #12
  46 002e 019B     		ldr	r3, [sp, #4]
  47 0030 FFF7FEFF 		bl	HAL_GPIO_Init
  48 0034 2A46     		mov	r2, r5
  49 0036 1448     		ldr	r0, .L4+4
  50 0038 0821     		movs	r1, #8
  51 003a FFF7FEFF 		bl	HAL_GPIO_WritePin
  52 003e 2A46     		mov	r2, r5
  53 0040 1148     		ldr	r0, .L4+4
  54 0042 4021     		movs	r1, #64
  55 0044 FFF7FEFF 		bl	HAL_GPIO_WritePin
  56 0048 4FF40057 		mov	r7, #8192
  57 004c 2A46     		mov	r2, r5
  58 004e 0E48     		ldr	r0, .L4+4
ARM GAS  /tmp/cctIMkXn.s 			page 2


  59 0050 4FF40071 		mov	r1, #512
  60 0054 FFF7FEFF 		bl	HAL_GPIO_WritePin
  61 0058 0296     		str	r6, [sp, #8]
  62 005a 0397     		str	r7, [sp, #12]
  63 005c 236B     		ldr	r3, [r4, #48]
  64 005e 0B48     		ldr	r0, .L4+8
  65 0060 43F00403 		orr	r3, r3, #4
  66 0064 2363     		str	r3, [r4, #48]
  67 0066 236B     		ldr	r3, [r4, #48]
  68 0068 03F00403 		and	r3, r3, #4
  69 006c 03A9     		add	r1, sp, #12
  70 006e 0293     		str	r3, [sp, #8]
  71 0070 029B     		ldr	r3, [sp, #8]
  72 0072 FFF7FEFF 		bl	HAL_GPIO_Init
  73 0076 0548     		ldr	r0, .L4+8
  74 0078 2A46     		mov	r2, r5
  75 007a 3946     		mov	r1, r7
  76 007c FFF7FEFF 		bl	HAL_GPIO_WritePin
  77 0080 09B0     		add	sp, sp, #36
  78              		@ sp needed
  79 0082 F0BD     		pop	{r4, r5, r6, r7, pc}
  80              	.L5:
  81              		.align	2
  82              	.L4:
  83 0084 00380240 		.word	1073887232
  84 0088 00040240 		.word	1073873920
  85 008c 00080240 		.word	1073874944
  87              		.section	.text.BSP_LED_DeInit,"ax",%progbits
  88              		.align	1
  89              		.p2align 2,,3
  90              		.global	BSP_LED_DeInit
  91              		.syntax unified
  92              		.thumb
  93              		.thumb_func
  94              		.fpu fpv4-sp-d16
  96              	BSP_LED_DeInit:
  97              		@ args = 0, pretend = 0, frame = 0
  98              		@ frame_needed = 0, uses_anonymous_args = 0
  99 0000 38B5     		push	{r3, r4, r5, lr}
 100 0002 124C     		ldr	r4, .L8
 101 0004 124D     		ldr	r5, .L8+4
 102 0006 2046     		mov	r0, r4
 103 0008 0022     		movs	r2, #0
 104 000a 0821     		movs	r1, #8
 105 000c FFF7FEFF 		bl	HAL_GPIO_WritePin
 106 0010 2046     		mov	r0, r4
 107 0012 0022     		movs	r2, #0
 108 0014 4021     		movs	r1, #64
 109 0016 FFF7FEFF 		bl	HAL_GPIO_WritePin
 110 001a 2046     		mov	r0, r4
 111 001c 0022     		movs	r2, #0
 112 001e 4FF40071 		mov	r1, #512
 113 0022 FFF7FEFF 		bl	HAL_GPIO_WritePin
 114 0026 2846     		mov	r0, r5
 115 0028 0022     		movs	r2, #0
 116 002a 4FF40051 		mov	r1, #8192
 117 002e FFF7FEFF 		bl	HAL_GPIO_WritePin
ARM GAS  /tmp/cctIMkXn.s 			page 3


 118 0032 2046     		mov	r0, r4
 119 0034 4FF41271 		mov	r1, #584
 120 0038 FFF7FEFF 		bl	HAL_GPIO_DeInit
 121 003c 2846     		mov	r0, r5
 122 003e 4FF40051 		mov	r1, #8192
 123 0042 BDE83840 		pop	{r3, r4, r5, lr}
 124 0046 FFF7FEBF 		b	HAL_GPIO_DeInit
 125              	.L9:
 126 004a 00BF     		.align	2
 127              	.L8:
 128 004c 00040240 		.word	1073873920
 129 0050 00080240 		.word	1073874944
 131              		.section	.text.BSP_OnboardLED_On,"ax",%progbits
 132              		.align	1
 133              		.p2align 2,,3
 134              		.global	BSP_OnboardLED_On
 135              		.syntax unified
 136              		.thumb
 137              		.thumb_func
 138              		.fpu fpv4-sp-d16
 140              	BSP_OnboardLED_On:
 141              		@ args = 0, pretend = 0, frame = 0
 142              		@ frame_needed = 0, uses_anonymous_args = 0
 143              		@ link register save eliminated.
 144 0000 0248     		ldr	r0, .L11
 145 0002 0022     		movs	r2, #0
 146 0004 4FF40051 		mov	r1, #8192
 147 0008 FFF7FEBF 		b	HAL_GPIO_WritePin
 148              	.L12:
 149              		.align	2
 150              	.L11:
 151 000c 00080240 		.word	1073874944
 153              		.section	.text.BSP_OnboardLED_Off,"ax",%progbits
 154              		.align	1
 155              		.p2align 2,,3
 156              		.global	BSP_OnboardLED_Off
 157              		.syntax unified
 158              		.thumb
 159              		.thumb_func
 160              		.fpu fpv4-sp-d16
 162              	BSP_OnboardLED_Off:
 163              		@ args = 0, pretend = 0, frame = 0
 164              		@ frame_needed = 0, uses_anonymous_args = 0
 165              		@ link register save eliminated.
 166 0000 0248     		ldr	r0, .L14
 167 0002 0122     		movs	r2, #1
 168 0004 4FF40051 		mov	r1, #8192
 169 0008 FFF7FEBF 		b	HAL_GPIO_WritePin
 170              	.L15:
 171              		.align	2
 172              	.L14:
 173 000c 00080240 		.word	1073874944
 175              		.section	.text.BSP_OnboardLED_Toggle,"ax",%progbits
 176              		.align	1
 177              		.p2align 2,,3
 178              		.global	BSP_OnboardLED_Toggle
 179              		.syntax unified
ARM GAS  /tmp/cctIMkXn.s 			page 4


 180              		.thumb
 181              		.thumb_func
 182              		.fpu fpv4-sp-d16
 184              	BSP_OnboardLED_Toggle:
 185              		@ args = 0, pretend = 0, frame = 0
 186              		@ frame_needed = 0, uses_anonymous_args = 0
 187              		@ link register save eliminated.
 188 0000 0248     		ldr	r0, .L17
 189 0002 4FF40051 		mov	r1, #8192
 190 0006 FFF7FEBF 		b	HAL_GPIO_TogglePin
 191              	.L18:
 192 000a 00BF     		.align	2
 193              	.L17:
 194 000c 00080240 		.word	1073874944
 196              		.section	.text.BSP_LED_On,"ax",%progbits
 197              		.align	1
 198              		.p2align 2,,3
 199              		.global	BSP_LED_On
 200              		.syntax unified
 201              		.thumb
 202              		.thumb_func
 203              		.fpu fpv4-sp-d16
 205              	BSP_LED_On:
 206              		@ args = 0, pretend = 0, frame = 0
 207              		@ frame_needed = 0, uses_anonymous_args = 0
 208              		@ link register save eliminated.
 209 0000 0228     		cmp	r0, #2
 210 0002 0346     		mov	r3, r0
 211 0004 00D9     		bls	.L21
 212 0006 7047     		bx	lr
 213              	.L21:
 214 0008 034A     		ldr	r2, .L22
 215 000a 0448     		ldr	r0, .L22+4
 216 000c 32F82310 		ldrh	r1, [r2, r3, lsl #2]
 217 0010 0022     		movs	r2, #0
 218 0012 FFF7FEBF 		b	HAL_GPIO_WritePin
 219              	.L23:
 220 0016 00BF     		.align	2
 221              	.L22:
 222 0018 00000000 		.word	.LANCHOR0
 223 001c 00040240 		.word	1073873920
 225              		.section	.text.BSP_LED_Off,"ax",%progbits
 226              		.align	1
 227              		.p2align 2,,3
 228              		.global	BSP_LED_Off
 229              		.syntax unified
 230              		.thumb
 231              		.thumb_func
 232              		.fpu fpv4-sp-d16
 234              	BSP_LED_Off:
 235              		@ args = 0, pretend = 0, frame = 0
 236              		@ frame_needed = 0, uses_anonymous_args = 0
 237              		@ link register save eliminated.
 238 0000 0228     		cmp	r0, #2
 239 0002 0346     		mov	r3, r0
 240 0004 00D9     		bls	.L26
 241 0006 7047     		bx	lr
ARM GAS  /tmp/cctIMkXn.s 			page 5


 242              	.L26:
 243 0008 034A     		ldr	r2, .L27
 244 000a 0448     		ldr	r0, .L27+4
 245 000c 32F82310 		ldrh	r1, [r2, r3, lsl #2]
 246 0010 0122     		movs	r2, #1
 247 0012 FFF7FEBF 		b	HAL_GPIO_WritePin
 248              	.L28:
 249 0016 00BF     		.align	2
 250              	.L27:
 251 0018 00000000 		.word	.LANCHOR0
 252 001c 00040240 		.word	1073873920
 254              		.section	.text.BSP_LED_Toggle,"ax",%progbits
 255              		.align	1
 256              		.p2align 2,,3
 257              		.global	BSP_LED_Toggle
 258              		.syntax unified
 259              		.thumb
 260              		.thumb_func
 261              		.fpu fpv4-sp-d16
 263              	BSP_LED_Toggle:
 264              		@ args = 0, pretend = 0, frame = 0
 265              		@ frame_needed = 0, uses_anonymous_args = 0
 266              		@ link register save eliminated.
 267 0000 0228     		cmp	r0, #2
 268 0002 0346     		mov	r3, r0
 269 0004 00D9     		bls	.L31
 270 0006 7047     		bx	lr
 271              	.L31:
 272 0008 024A     		ldr	r2, .L32
 273 000a 0348     		ldr	r0, .L32+4
 274 000c 32F82310 		ldrh	r1, [r2, r3, lsl #2]
 275 0010 FFF7FEBF 		b	HAL_GPIO_TogglePin
 276              	.L33:
 277              		.align	2
 278              	.L32:
 279 0014 00000000 		.word	.LANCHOR0
 280 0018 00040240 		.word	1073873920
 282              		.section	.text.BSP_PB_Init,"ax",%progbits
 283              		.align	1
 284              		.p2align 2,,3
 285              		.global	BSP_PB_Init
 286              		.syntax unified
 287              		.thumb
 288              		.thumb_func
 289              		.fpu fpv4-sp-d16
 291              	BSP_PB_Init:
 292              		@ args = 0, pretend = 0, frame = 24
 293              		@ frame_needed = 0, uses_anonymous_args = 0
 294 0000 30B5     		push	{r4, r5, lr}
 295 0002 0024     		movs	r4, #0
 296 0004 87B0     		sub	sp, sp, #28
 297 0006 CDE90444 		strd	r4, r4, [sp, #16]
 298 000a 0E4B     		ldr	r3, .L36
 299 000c 0094     		str	r4, [sp]
 300 000e 1A6B     		ldr	r2, [r3, #48]
 301 0010 0D48     		ldr	r0, .L36+4
 302 0012 42F00102 		orr	r2, r2, #1
ARM GAS  /tmp/cctIMkXn.s 			page 6


 303 0016 1A63     		str	r2, [r3, #48]
 304 0018 1B6B     		ldr	r3, [r3, #48]
 305 001a 0122     		movs	r2, #1
 306 001c 1340     		ands	r3, r3, r2
 307 001e 0093     		str	r3, [sp]
 308 0020 0A4B     		ldr	r3, .L36+8
 309 0022 0392     		str	r2, [sp, #12]
 310 0024 01A9     		add	r1, sp, #4
 311 0026 CDE90123 		strd	r2, r3, [sp, #4]
 312 002a 009D     		ldr	r5, [sp]
 313 002c FFF7FEFF 		bl	HAL_GPIO_Init
 314 0030 2246     		mov	r2, r4
 315 0032 2146     		mov	r1, r4
 316 0034 0620     		movs	r0, #6
 317 0036 FFF7FEFF 		bl	HAL_NVIC_SetPriority
 318 003a 0620     		movs	r0, #6
 319 003c FFF7FEFF 		bl	HAL_NVIC_EnableIRQ
 320 0040 07B0     		add	sp, sp, #28
 321              		@ sp needed
 322 0042 30BD     		pop	{r4, r5, pc}
 323              	.L37:
 324              		.align	2
 325              	.L36:
 326 0044 00380240 		.word	1073887232
 327 0048 00000240 		.word	1073872896
 328 004c 00002110 		.word	270598144
 330              		.section	.text.bsp_init,"ax",%progbits
 331              		.align	1
 332              		.p2align 2,,3
 333              		.global	bsp_init
 334              		.syntax unified
 335              		.thumb
 336              		.thumb_func
 337              		.fpu fpv4-sp-d16
 339              	bsp_init:
 340              		@ args = 0, pretend = 0, frame = 0
 341              		@ frame_needed = 0, uses_anonymous_args = 0
 342 0000 08B5     		push	{r3, lr}
 343 0002 FFF7FEFF 		bl	BSP_PB_Init
 344 0006 BDE80840 		pop	{r3, lr}
 345 000a FFF7FEBF 		b	BSP_LED_Init
 347 000e 00BF     		.section	.text.BSP_PB_GetState,"ax",%progbits
 348              		.align	1
 349              		.p2align 2,,3
 350              		.global	BSP_PB_GetState
 351              		.syntax unified
 352              		.thumb
 353              		.thumb_func
 354              		.fpu fpv4-sp-d16
 356              	BSP_PB_GetState:
 357              		@ args = 0, pretend = 0, frame = 0
 358              		@ frame_needed = 0, uses_anonymous_args = 0
 359 0000 08B5     		push	{r3, lr}
 360 0002 0121     		movs	r1, #1
 361 0004 0148     		ldr	r0, .L42
 362 0006 FFF7FEFF 		bl	HAL_GPIO_ReadPin
 363 000a 08BD     		pop	{r3, pc}
ARM GAS  /tmp/cctIMkXn.s 			page 7


 364              	.L43:
 365              		.align	2
 366              	.L42:
 367 000c 00000240 		.word	1073872896
 369              		.section	.text.HAL_GPIO_EXTI_Callback,"ax",%progbits
 370              		.align	1
 371              		.p2align 2,,3
 372              		.global	HAL_GPIO_EXTI_Callback
 373              		.syntax unified
 374              		.thumb
 375              		.thumb_func
 376              		.fpu fpv4-sp-d16
 378              	HAL_GPIO_EXTI_Callback:
 379              		@ args = 0, pretend = 0, frame = 0
 380              		@ frame_needed = 0, uses_anonymous_args = 0
 381              		@ link register save eliminated.
 382 0000 0128     		cmp	r0, #1
 383 0002 04BF     		itt	eq
 384 0004 014B     		ldreq	r3, .L46
 385 0006 1860     		streq	r0, [r3]
 386 0008 7047     		bx	lr
 387              	.L47:
 388 000a 00BF     		.align	2
 389              	.L46:
 390 000c 00000000 		.word	.LANCHOR1
 392              		.global	BtnPressed
 393              		.global	GPIO_PIN
 394              		.section	.bss.BtnPressed,"aw",%nobits
 395              		.align	2
 396              		.set	.LANCHOR1,. + 0
 399              	BtnPressed:
 400 0000 00000000 		.space	4
 401              		.section	.data.GPIO_PIN,"aw"
 402              		.align	2
 403              		.set	.LANCHOR0,. + 0
 406              	GPIO_PIN:
 407 0000 08000000 		.word	8
 408 0004 40000000 		.word	64
 409 0008 00020000 		.word	512
 410              		.ident	"GCC: (15:10.3-2021.07-4) 10.3.1 20210621 (release)"
ARM GAS  /tmp/cctIMkXn.s 			page 8

