ARM GAS  /tmp/cc8ZSghs.s 			page 1


   1              		.cpu cortex-m4
   2              		.eabi_attribute 27, 1
   3              		.eabi_attribute 28, 1
   4              		.eabi_attribute 20, 1
   5              		.eabi_attribute 21, 1
   6              		.eabi_attribute 23, 3
   7              		.eabi_attribute 24, 1
   8              		.eabi_attribute 25, 1
   9              		.eabi_attribute 26, 1
  10              		.eabi_attribute 30, 2
  11              		.eabi_attribute 34, 1
  12              		.eabi_attribute 18, 4
  13              		.file	"stm32f4xx_hal_pcd_ex.c"
  14              		.text
  15              		.section	.text.HAL_PCDEx_SetTxFiFo,"ax",%progbits
  16              		.align	1
  17              		.p2align 2,,3
  18              		.global	HAL_PCDEx_SetTxFiFo
  19              		.arch armv7e-m
  20              		.syntax unified
  21              		.thumb
  22              		.thumb_func
  23              		.fpu fpv4-sp-d16
  25              	HAL_PCDEx_SetTxFiFo:
  26              		@ args = 0, pretend = 0, frame = 0
  27              		@ frame_needed = 0, uses_anonymous_args = 0
  28              		@ link register save eliminated.
  29 0000 10B4     		push	{r4}
  30 0002 0468     		ldr	r4, [r0]
  31 0004 606A     		ldr	r0, [r4, #36]
  32 0006 31B9     		cbnz	r1, .L2
  33 0008 40EA0240 		orr	r0, r0, r2, lsl #16
  34 000c A062     		str	r0, [r4, #40]
  35 000e 0020     		movs	r0, #0
  36 0010 5DF8044B 		ldr	r4, [sp], #4
  37 0014 7047     		bx	lr
  38              	.L2:
  39 0016 A36A     		ldr	r3, [r4, #40]
  40 0018 B1F1010C 		subs	ip, r1, #1
  41 001c 00EB1340 		add	r0, r0, r3, lsr #16
  42 0020 0BD0     		beq	.L4
  43 0022 0023     		movs	r3, #0
  44              	.L5:
  45 0024 03F14001 		add	r1, r3, #64
  46 0028 04EB8101 		add	r1, r4, r1, lsl #2
  47 002c 0133     		adds	r3, r3, #1
  48 002e 4968     		ldr	r1, [r1, #4]
  49 0030 DBB2     		uxtb	r3, r3
  50 0032 6345     		cmp	r3, ip
  51 0034 00EB1140 		add	r0, r0, r1, lsr #16
  52 0038 F4D3     		bcc	.L5
  53              	.L4:
  54 003a 0CF1400C 		add	ip, ip, #64
  55 003e 04EB8C0C 		add	ip, r4, ip, lsl #2
  56 0042 40EA0240 		orr	r0, r0, r2, lsl #16
  57 0046 CCF80400 		str	r0, [ip, #4]
  58 004a 5DF8044B 		ldr	r4, [sp], #4
ARM GAS  /tmp/cc8ZSghs.s 			page 2


  59 004e 0020     		movs	r0, #0
  60 0050 7047     		bx	lr
  62 0052 00BF     		.section	.text.HAL_PCDEx_SetRxFiFo,"ax",%progbits
  63              		.align	1
  64              		.p2align 2,,3
  65              		.global	HAL_PCDEx_SetRxFiFo
  66              		.syntax unified
  67              		.thumb
  68              		.thumb_func
  69              		.fpu fpv4-sp-d16
  71              	HAL_PCDEx_SetRxFiFo:
  72              		@ args = 0, pretend = 0, frame = 0
  73              		@ frame_needed = 0, uses_anonymous_args = 0
  74              		@ link register save eliminated.
  75 0000 0368     		ldr	r3, [r0]
  76 0002 0020     		movs	r0, #0
  77 0004 5962     		str	r1, [r3, #36]
  78 0006 7047     		bx	lr
  80              		.section	.text.HAL_PCDEx_LPM_Callback,"ax",%progbits
  81              		.align	1
  82              		.p2align 2,,3
  83              		.weak	HAL_PCDEx_LPM_Callback
  84              		.syntax unified
  85              		.thumb
  86              		.thumb_func
  87              		.fpu fpv4-sp-d16
  89              	HAL_PCDEx_LPM_Callback:
  90              		@ args = 0, pretend = 0, frame = 0
  91              		@ frame_needed = 0, uses_anonymous_args = 0
  92              		@ link register save eliminated.
  93 0000 7047     		bx	lr
  95 0002 00BF     		.section	.text.HAL_PCDEx_BCD_Callback,"ax",%progbits
  96              		.align	1
  97              		.p2align 2,,3
  98              		.weak	HAL_PCDEx_BCD_Callback
  99              		.syntax unified
 100              		.thumb
 101              		.thumb_func
 102              		.fpu fpv4-sp-d16
 104              	HAL_PCDEx_BCD_Callback:
 105              		@ args = 0, pretend = 0, frame = 0
 106              		@ frame_needed = 0, uses_anonymous_args = 0
 107              		@ link register save eliminated.
 108 0000 7047     		bx	lr
 110 0002 00BF     		.ident	"GCC: (15:10.3-2021.07-4) 10.3.1 20210621 (release)"
ARM GAS  /tmp/cc8ZSghs.s 			page 3

